; Function Attrs: mustprogress uwtable
define void @_ZN3url21CanonicalizeIPAddressEPKcRKNS_9ComponentEPNS_12CanonOutputTIcEEPNS_13CanonHostInfoE(ptr noundef readonly captures(none) %0, ptr noundef nonnull readonly align 4 captures(none) dereferenceable(8) %1, ptr noundef %2, ptr noundef captures(none) %3) local_unnamed_addr #0 {
  %5 = getelementptr inbounds nuw i8, ptr %3, i64 16
  %6 = getelementptr inbounds nuw i8, ptr %3, i64 4
  %7 = tail call noundef i32 @_ZN3url19IPv4AddressToNumberEPKcRKNS_9ComponentEPhPi(ptr noundef readonly %0, ptr noundef nonnull readonly align 4 dereferenceable(8) %1, ptr noundef nonnull %5, ptr noundef nonnull %6)
  store i32 %7, ptr %3, align 4, !tbaa !30
  switch i32 %7, label %_ZN3url12_GLOBAL__N_125DoCanonicalizeIPv4AddressIchEEbPKT_RKNS_9ComponentEPNS_12CanonOutputTIcEEPNS_13CanonHostInfoE.exit [
    i32 2, label %8
    i32 1, label %_ZN3url12_GLOBAL__N_125DoCanonicalizeIPv4AddressIchEEbPKT_RKNS_9ComponentEPNS_12CanonOutputTIcEEPNS_13CanonHostInfoE.exit.thread
  ]

8:                                                ; preds = %4
  %9 = getelementptr inbounds nuw i8, ptr %2, i64 20
  %10 = load i32, ptr %9, align 4, !tbaa !6
  %11 = getelementptr inbounds nuw i8, ptr %3, i64 8
  store i32 %10, ptr %11, align 4, !tbaa !33
  tail call void @_ZN3url17AppendIPv4AddressEPKhPNS_12CanonOutputTIcEE(ptr noundef nonnull %5, ptr noundef nonnull %2)
  %12 = load i32, ptr %9, align 4, !tbaa !6
  %13 = load i32, ptr %11, align 4, !tbaa !33
  %14 = sub nsw i32 %12, %13
  %15 = getelementptr inbounds nuw i8, ptr %3, i64 12
  store i32 %14, ptr %15, align 4, !tbaa !34
  br label %_ZN3url12_GLOBAL__N_125DoCanonicalizeIPv4AddressIchEEbPKT_RKNS_9ComponentEPNS_12CanonOutputTIcEEPNS_13CanonHostInfoE.exit.thread

_ZN3url12_GLOBAL__N_125DoCanonicalizeIPv4AddressIchEEbPKT_RKNS_9ComponentEPNS_12CanonOutputTIcEEPNS_13CanonHostInfoE.exit: ; preds = %4
  %16 = tail call noundef zeroext i1 @_ZN3url19IPv6AddressToNumberEPKcRKNS_9ComponentEPh(ptr noundef readonly %0, ptr noundef nonnull readonly align 4 dereferenceable(8) %1, ptr noundef nonnull %5)
  br i1 %16, label %29, label %17

17:                                               ; preds = %_ZN3url12_GLOBAL__N_125DoCanonicalizeIPv4AddressIchEEbPKT_RKNS_9ComponentEPNS_12CanonOutputTIcEEPNS_13CanonHostInfoE.exit
  %18 = getelementptr inbounds nuw i8, ptr %1, i64 4
  %19 = load i32, ptr %18, align 4, !tbaa !22
  %20 = icmp sgt i32 %19, 0
  br i1 %20, label %.lr.ph.preheader.i, label %_ZN3url12_GLOBAL__N_125DoCanonicalizeIPv6AddressIchEEbPKT_RKNS_9ComponentEPNS_12CanonOutputTIcEEPNS_13CanonHostInfoE.exit

.lr.ph.preheader.i:                               ; preds = %17
  %21 = load i32, ptr %1, align 4, !tbaa !35
  %22 = add nsw i32 %21, %19
  %23 = sext i32 %21 to i64
  %24 = sext i32 %22 to i64
  br label %.lr.ph.i

.lr.ph.i:                                         ; preds = %27, %.lr.ph.preheader.i
  %indvars.iv.i = phi i64 [ %23, %.lr.ph.preheader.i ], [ %indvars.iv.next.i, %27 ]
  %25 = getelementptr inbounds i8, ptr %0, i64 %indvars.iv.i
  %26 = load i8, ptr %25, align 1, !tbaa !3
  switch i8 %26, label %27 [
    i8 91, label %_ZN3url12_GLOBAL__N_125DoCanonicalizeIPv6AddressIchEEbPKT_RKNS_9ComponentEPNS_12CanonOutputTIcEEPNS_13CanonHostInfoE.exit
    i8 93, label %_ZN3url12_GLOBAL__N_125DoCanonicalizeIPv6AddressIchEEbPKT_RKNS_9ComponentEPNS_12CanonOutputTIcEEPNS_13CanonHostInfoE.exit
    i8 58, label %_ZN3url12_GLOBAL__N_125DoCanonicalizeIPv6AddressIchEEbPKT_RKNS_9ComponentEPNS_12CanonOutputTIcEEPNS_13CanonHostInfoE.exit
  ]

27:                                               ; preds = %.lr.ph.i
  %indvars.iv.next.i = add nsw i64 %indvars.iv.i, 1
  %28 = icmp slt i64 %indvars.iv.next.i, %24
  br i1 %28, label %.lr.ph.i, label %_ZN3url12_GLOBAL__N_125DoCanonicalizeIPv6AddressIchEEbPKT_RKNS_9ComponentEPNS_12CanonOutputTIcEEPNS_13CanonHostInfoE.exit, !llvm.loop !36

29:                                               ; preds = %_ZN3url12_GLOBAL__N_125DoCanonicalizeIPv4AddressIchEEbPKT_RKNS_9ComponentEPNS_12CanonOutputTIcEEPNS_13CanonHostInfoE.exit
  %30 = getelementptr inbounds nuw i8, ptr %2, i64 20
  %31 = load i32, ptr %30, align 4, !tbaa !6
  %32 = getelementptr inbounds nuw i8, ptr %3, i64 8
  store i32 %31, ptr %32, align 4, !tbaa !33
  %33 = getelementptr inbounds nuw i8, ptr %2, i64 16
  %34 = load i32, ptr %33, align 8, !tbaa !11
  %35 = icmp slt i32 %31, %34
  br i1 %35, label %_ZN3url12CanonOutputTIcE4GrowEi.exit.sink.split.i.i, label %select.unfold.i.preheader.i.i

select.unfold.i.preheader.i.i:                    ; preds = %29
  %36 = icmp eq i32 %34, 0
  %spec.select = select i1 %36, i32 16, i32 %34
  br label %select.unfold.i.i.i

select.unfold.i.i.i:                              ; preds = %select.unfold.i.preheader.i.i, %38
  %.0.i.i.i = phi i32 [ %39, %38 ], [ %spec.select, %select.unfold.i.preheader.i.i ]
  %37 = icmp slt i32 %.0.i.i.i, 1073741824
  br i1 %37, label %38, label %_ZN3url12CanonOutputTIcE9push_backEc.exit.i

38:                                               ; preds = %select.unfold.i.i.i
  %39 = shl nsw i32 %.0.i.i.i, 1
  %.not.i.i = icmp sgt i32 %39, %34
  br i1 %.not.i.i, label %40, label %select.unfold.i.i.i, !llvm.loop !12

40:                                               ; preds = %38
  %41 = load ptr, ptr %2, align 8, !tbaa !14
  %42 = getelementptr inbounds nuw i8, ptr %41, i64 16
  %43 = load ptr, ptr %42, align 8
  tail call void %43(ptr noundef nonnull align 8 dereferenceable(24) %2, i32 noundef %39)
  %44 = load i32, ptr %30, align 4, !tbaa !6
  br label %_ZN3url12CanonOutputTIcE4GrowEi.exit.sink.split.i.i

_ZN3url12CanonOutputTIcE4GrowEi.exit.sink.split.i.i: ; preds = %40, %29
  %.sink.i.i = phi i32 [ %44, %40 ], [ %31, %29 ]
  %.sink3.in.i.i = getelementptr inbounds nuw i8, ptr %2, i64 8
  %.sink3.i.i = load ptr, ptr %.sink3.in.i.i, align 8, !tbaa !16
  %45 = sext i32 %.sink.i.i to i64
  %46 = getelementptr inbounds i8, ptr %.sink3.i.i, i64 %45
  store i8 91, ptr %46, align 1, !tbaa !3
  %47 = load i32, ptr %30, align 4, !tbaa !6
  %48 = add nsw i32 %47, 1
  store i32 %48, ptr %30, align 4, !tbaa !6
  br label %_ZN3url12CanonOutputTIcE9push_backEc.exit.i

_ZN3url12CanonOutputTIcE9push_backEc.exit.i:      ; preds = %select.unfold.i.i.i, %_ZN3url12CanonOutputTIcE4GrowEi.exit.sink.split.i.i
  tail call void @_ZN3url17AppendIPv6AddressEPKhPNS_12CanonOutputTIcEE(ptr noundef nonnull %5, ptr noundef nonnull %2)
  %49 = load i32, ptr %30, align 4, !tbaa !6
  %50 = load i32, ptr %33, align 8, !tbaa !11
  %51 = icmp slt i32 %49, %50
  br i1 %51, label %_ZN3url12CanonOutputTIcE4GrowEi.exit.sink.split.i29.i, label %select.unfold.i.preheader.i24.i

select.unfold.i.preheader.i24.i:                  ; preds = %_ZN3url12CanonOutputTIcE9push_backEc.exit.i
  %52 = icmp eq i32 %50, 0
  %spec.select15 = select i1 %52, i32 16, i32 %50
  br label %select.unfold.i.i26.i

select.unfold.i.i26.i:                            ; preds = %select.unfold.i.preheader.i24.i, %54
  %.0.i.i27.i = phi i32 [ %55, %54 ], [ %spec.select15, %select.unfold.i.preheader.i24.i ]
  %53 = icmp slt i32 %.0.i.i27.i, 1073741824
  br i1 %53, label %54, label %_ZN3url12CanonOutputTIcE9push_backEc.exit33.i

54:                                               ; preds = %select.unfold.i.i26.i
  %55 = shl nsw i32 %.0.i.i27.i, 1
  %.not.i28.i = icmp sgt i32 %55, %50
  br i1 %.not.i28.i, label %56, label %select.unfold.i.i26.i, !llvm.loop !12

56:                                               ; preds = %54
  %57 = load ptr, ptr %2, align 8, !tbaa !14
  %58 = getelementptr inbounds nuw i8, ptr %57, i64 16
  %59 = load ptr, ptr %58, align 8
  tail call void %59(ptr noundef nonnull align 8 dereferenceable(24) %2, i32 noundef %55)
  %60 = load i32, ptr %30, align 4, !tbaa !6
  br label %_ZN3url12CanonOutputTIcE4GrowEi.exit.sink.split.i29.i

_ZN3url12CanonOutputTIcE4GrowEi.exit.sink.split.i29.i: ; preds = %56, %_ZN3url12CanonOutputTIcE9push_backEc.exit.i
  %.sink.i30.i = phi i32 [ %60, %56 ], [ %49, %_ZN3url12CanonOutputTIcE9push_backEc.exit.i ]
  %.sink3.in.i31.i = getelementptr inbounds nuw i8, ptr %2, i64 8
  %.sink3.i32.i = load ptr, ptr %.sink3.in.i31.i, align 8, !tbaa !16
  %61 = sext i32 %.sink.i30.i to i64
  %62 = getelementptr inbounds i8, ptr %.sink3.i32.i, i64 %61
  store i8 93, ptr %62, align 1, !tbaa !3
  %63 = load i32, ptr %30, align 4, !tbaa !6
  %64 = add nsw i32 %63, 1
  store i32 %64, ptr %30, align 4, !tbaa !6
  br label %_ZN3url12CanonOutputTIcE9push_backEc.exit33.i

_ZN3url12CanonOutputTIcE9push_backEc.exit33.i:    ; preds = %select.unfold.i.i26.i, %_ZN3url12CanonOutputTIcE4GrowEi.exit.sink.split.i29.i
  %65 = phi i32 [ %64, %_ZN3url12CanonOutputTIcE4GrowEi.exit.sink.split.i29.i ], [ %49, %select.unfold.i.i26.i ]
  %66 = load i32, ptr %32, align 4, !tbaa !33
  %67 = sub nsw i32 %65, %66
  %68 = getelementptr inbounds nuw i8, ptr %3, i64 12
  store i32 %67, ptr %68, align 4, !tbaa !34
  br label %_ZN3url12_GLOBAL__N_125DoCanonicalizeIPv6AddressIchEEbPKT_RKNS_9ComponentEPNS_12CanonOutputTIcEEPNS_13CanonHostInfoE.exit

_ZN3url12_GLOBAL__N_125DoCanonicalizeIPv6AddressIchEEbPKT_RKNS_9ComponentEPNS_12CanonOutputTIcEEPNS_13CanonHostInfoE.exit: ; preds = %.lr.ph.i, %.lr.ph.i, %.lr.ph.i, %27, %17, %_ZN3url12CanonOutputTIcE9push_backEc.exit33.i
  %.sink.i = phi i32 [ 3, %_ZN3url12CanonOutputTIcE9push_backEc.exit33.i ], [ 0, %17 ], [ 0, %27 ], [ 1, %.lr.ph.i ], [ 1, %.lr.ph.i ], [ 1, %.lr.ph.i ]
  store i32 %.sink.i, ptr %3, align 4, !tbaa !30
  br label %_ZN3url12_GLOBAL__N_125DoCanonicalizeIPv4AddressIchEEbPKT_RKNS_9ComponentEPNS_12CanonOutputTIcEEPNS_13CanonHostInfoE.exit.thread

_ZN3url12_GLOBAL__N_125DoCanonicalizeIPv4AddressIchEEbPKT_RKNS_9ComponentEPNS_12CanonOutputTIcEEPNS_13CanonHostInfoE.exit.thread: ; preds = %4, %8, %_ZN3url12_GLOBAL__N_125DoCanonicalizeIPv6AddressIchEEbPKT_RKNS_9ComponentEPNS_12CanonOutputTIcEEPNS_13CanonHostInfoE.exit
  ret void
}